; Function Attrs: null_pointer_is_valid sspstrong uwtable
define internal i32 @dissect_FMP_Mount_request(ptr noundef %0, ptr readnone captures(none) %1, ptr noundef %2, ptr readnone captures(none) %3) #0 {
  %5 = load i32, ptr @hf_fmp_sessionHandle, align 4
  %6 = tail call i32 @dissect_rpc_data(ptr noundef %0, ptr noundef %2, i32 noundef %5, i32 noundef 0)
  %7 = load i32, ptr @hf_fmp_capability, align 4
  %8 = tail call ptr @proto_tree_add_item(ptr noundef %2, i32 noundef %7, ptr noundef %0, i32 noundef %6, i32 noundef 4, i32 noundef 0)
  %9 = add i32 %6, 4
  %10 = tail call fastcc i32 @dissect_fmp_fileHandleSrc(ptr noundef %0, i32 noundef %9, ptr noundef %2)
  ret i32 %10
}